; Function Attrs: mustprogress nofree norecurse nosync nounwind willreturn memory(read, inaccessiblemem: none) uwtable
define internal fastcc zeroext i1 @zend_is_scope_known() unnamed_addr #11 {
  %1 = load ptr, ptr getelementptr inbounds (%struct._zend_compiler_globals, ptr @compiler_globals, i64 0, i32 4), align 8
  %.not = icmp eq ptr %1, null
  br i1 %.not, label %17, label %2

2:                                                ; preds = %0
  %3 = getelementptr inbounds i8, ptr %1, i64 4
  %4 = load i32, ptr %3, align 4
  %5 = and i32 %4, 4194304
  %.not3 = icmp eq i32 %5, 0
  br i1 %.not3, label %6, label %17

6:                                                ; preds = %2
  %7 = load ptr, ptr getelementptr inbounds (%struct._zend_compiler_globals, ptr @compiler_globals, i64 0, i32 1), align 8
  %.not4 = icmp eq ptr %7, null
  br i1 %.not4, label %8, label %12

8:                                                ; preds = %6
  %9 = getelementptr inbounds i8, ptr %1, i64 8
  %10 = load ptr, ptr %9, align 8
  %11 = icmp ne ptr %10, null
  br label %17

12:                                               ; preds = %6
  %13 = getelementptr inbounds i8, ptr %7, i64 28
  %14 = load i32, ptr %13, align 4
  %15 = and i32 %14, 2
  %16 = icmp eq i32 %15, 0
  br label %17

17:                                               ; preds = %2, %0, %12, %8
  %.0 = phi i1 [ %16, %12 ], [ %11, %8 ], [ false, %0 ], [ false, %2 ]
  ret i1 %.0
}